; Function Attrs: mustprogress uwtable
define hidden noundef zeroext i1 @_ZN3sls7bv_eval14try_repair_subERKNS_5bvectERNS_12bv_valuationES5_j(ptr noundef nonnull align 8 dereferenceable(865) %0, ptr noundef nonnull align 8 dereferenceable(20) %1, ptr noundef nonnull align 8 dereferenceable(184) %2, ptr noundef nonnull align 8 dereferenceable(184) %3, i32 noundef %4) local_unnamed_addr #3 align 2 {
  %6 = getelementptr inbounds nuw i8, ptr %0, i64 504
  %7 = load i32, ptr %6, align 8, !tbaa !91
  %8 = mul i32 %7, 214013
  %9 = add i32 %8, 2531011
  store i32 %9, ptr %6, align 8, !tbaa !91
  %10 = lshr i32 %9, 16
  %11 = trunc nuw i32 %10 to i16
  %.lhs.trunc = and i16 %11, 32767
  %12 = urem i16 %.lhs.trunc, 20
  %.not = icmp eq i16 %12, 0
  br i1 %.not, label %_ZN3sls12bv_valuation7try_setERKNS_5bvectE.exit, label %13

13:                                               ; preds = %5
  %14 = icmp eq i32 %4, 0
  %15 = getelementptr inbounds nuw i8, ptr %0, i64 552
  br i1 %14, label %16, label %18

16:                                               ; preds = %13
  %17 = tail call noundef zeroext i1 @_ZNK3sls12bv_valuation7set_addERNS_5bvectERKS1_S4_(ptr noundef nonnull align 8 dereferenceable(184) %2, ptr noundef nonnull align 8 dereferenceable(20) %15, ptr noundef nonnull align 8 dereferenceable(20) %1, ptr noundef nonnull align 8 dereferenceable(20) %3)
  br label %19

18:                                               ; preds = %13
  tail call void @_ZNK3sls12bv_valuation7set_subERNS_5bvectERKS1_S4_(ptr noundef nonnull align 8 dereferenceable(184) %3, ptr noundef nonnull align 8 dereferenceable(20) %15, ptr noundef nonnull align 8 dereferenceable(20) %2, ptr noundef nonnull align 8 dereferenceable(20) %1)
  br label %19

19:                                               ; preds = %18, %16
  %20 = getelementptr inbounds nuw i8, ptr %0, i64 552
  %21 = tail call noundef zeroext i1 @_ZNK3sls12bv_valuation7can_setERKNS_5bvectE(ptr noundef nonnull align 8 dereferenceable(184) %2, ptr noundef nonnull align 8 dereferenceable(20) %20)
  br i1 %21, label %22, label %_ZN3sls12bv_valuation7try_setERKNS_5bvectE.exit

22:                                               ; preds = %19
  %23 = getelementptr inbounds nuw i8, ptr %2, i64 156
  %24 = load i32, ptr %23, align 4, !tbaa !131
  %.not4.i.i = icmp eq i32 %24, 0
  br i1 %.not4.i.i, label %.._crit_edge_crit_edge.i.i, label %.lr.ph.i.i

.._crit_edge_crit_edge.i.i:                       ; preds = %22
  %.phi.trans.insert.i.i = getelementptr inbounds nuw i8, ptr %2, i64 160
  %.pre7.i.i = load ptr, ptr %.phi.trans.insert.i.i, align 8, !tbaa !97
  br label %_ZN3sls12bv_valuation7try_setERKNS_5bvectE.exit.thread

.lr.ph.i.i:                                       ; preds = %22
  %25 = load ptr, ptr %20, align 8, !tbaa !97
  %26 = getelementptr inbounds nuw i8, ptr %2, i64 160
  %27 = load ptr, ptr %26, align 8, !tbaa !97
  %28 = zext i32 %24 to i64
  br label %31

._crit_edge.loopexit.i.i:                         ; preds = %31
  %.pre.i.i = load i32, ptr %23, align 4, !tbaa !131
  %29 = add i32 %.pre.i.i, -1
  %30 = zext i32 %29 to i64
  br label %_ZN3sls12bv_valuation7try_setERKNS_5bvectE.exit.thread

31:                                               ; preds = %31, %.lr.ph.i.i
  %indvars.iv.i.i = phi i64 [ %28, %.lr.ph.i.i ], [ %32, %31 ]
  %32 = add nsw i64 %indvars.iv.i.i, -1
  %33 = getelementptr inbounds nuw i32, ptr %25, i64 %32
  %34 = load i32, ptr %33, align 4, !tbaa !102
  %35 = getelementptr inbounds nuw i32, ptr %27, i64 %32
  store i32 %34, ptr %35, align 4, !tbaa !102
  %.not.wide.i.i = icmp eq i64 %32, 0
  br i1 %.not.wide.i.i, label %._crit_edge.loopexit.i.i, label %31, !llvm.loop !175

_ZN3sls12bv_valuation7try_setERKNS_5bvectE.exit.thread: ; preds = %.._crit_edge_crit_edge.i.i, %._crit_edge.loopexit.i.i
  %36 = phi ptr [ %27, %._crit_edge.loopexit.i.i ], [ %.pre7.i.i, %.._crit_edge_crit_edge.i.i ]
  %37 = phi i64 [ %30, %._crit_edge.loopexit.i.i ], [ 4294967295, %.._crit_edge_crit_edge.i.i ]
  %38 = getelementptr inbounds nuw i8, ptr %2, i64 148
  %39 = load i32, ptr %38, align 4, !tbaa !157
  %40 = getelementptr inbounds nuw i32, ptr %36, i64 %37
  %41 = load i32, ptr %40, align 4, !tbaa !102
  %42 = and i32 %41, %39
  store i32 %42, ptr %40, align 4, !tbaa !102
  br label %48

_ZN3sls12bv_valuation7try_setERKNS_5bvectE.exit:  ; preds = %19, %5
  %43 = icmp eq i32 %4, 0
  br i1 %43, label %44, label %46

44:                                               ; preds = %_ZN3sls12bv_valuation7try_setERKNS_5bvectE.exit
  %45 = tail call noundef zeroext i1 @_ZN3sls12bv_valuation10set_randomER10random_gen(ptr noundef nonnull align 8 dereferenceable(184) %2, ptr noundef nonnull align 4 dereferenceable(4) %6)
  br label %48

46:                                               ; preds = %_ZN3sls12bv_valuation7try_setERKNS_5bvectE.exit
  %47 = tail call noundef zeroext i1 @_ZN3sls12bv_valuation10set_randomER10random_gen(ptr noundef nonnull align 8 dereferenceable(184) %3, ptr noundef nonnull align 4 dereferenceable(4) %6)
  br label %48

48:                                               ; preds = %_ZN3sls12bv_valuation7try_setERKNS_5bvectE.exit.thread, %44, %46
  %.0 = phi i1 [ %45, %44 ], [ %47, %46 ], [ true, %_ZN3sls12bv_valuation7try_setERKNS_5bvectE.exit.thread ]
  ret i1 %.0
}